; Function Attrs: nounwind uwtable
define hidden i64 @_PyPegen_byte_offset_to_character_offset_raw(ptr noundef %0, i64 noundef %1) local_unnamed_addr #1 {
  %3 = tail call i64 @strlen(ptr noundef nonnull dereferenceable(1) %0) #14
  %4 = add i64 %3, 1
  %spec.select = tail call i64 @llvm.smin.i64(i64 %1, i64 %4)
  %5 = tail call ptr @PyUnicode_DecodeUTF8(ptr noundef nonnull %0, i64 noundef %spec.select, ptr noundef nonnull @.str.1) #13
  %.not = icmp eq ptr %5, null
  br i1 %.not, label %Py_DECREF.exit, label %6

6:                                                ; preds = %2
  %7 = getelementptr i8, ptr %5, i64 16
  %.val = load i64, ptr %7, align 8, !tbaa !22
  %8 = load i32, ptr %5, align 8, !tbaa !18
  %.not.i = icmp sgt i32 %8, -1
  br i1 %.not.i, label %9, label %Py_DECREF.exit

9:                                                ; preds = %6
  %10 = add nsw i32 %8, -1
  store i32 %10, ptr %5, align 8, !tbaa !18
  %11 = icmp eq i32 %10, 0
  br i1 %11, label %12, label %Py_DECREF.exit

12:                                               ; preds = %9
  tail call void @_Py_Dealloc(ptr noundef nonnull %5) #13
  br label %Py_DECREF.exit

Py_DECREF.exit:                                   ; preds = %12, %9, %6, %2
  %.0 = phi i64 [ -1, %2 ], [ %.val, %6 ], [ %.val, %9 ], [ %.val, %12 ]
  ret i64 %.0
}